Certificate:
    Data:
        Version: 3 (0x2)
        Serial Number:
            88:52:bd:6d:90:41:b0:c1
        Signature Algorithm: sha1WithRSAEncryption
        Issuer: C=LK, ST=Western, O=WSO2 Lanka (Pvt) Ltd., OU=Security, CN=WSO2 Identity Solution CA/emailAddress=identity-dev@wso2.org
        Validity
            Not Before: Sep 21 12:21:40 2007 GMT
            Not After : Feb 24 12:21:40 2024 GMT
        Subject: C=LK, ST=Western, L=Colombo, O=WSO2 Lanka (Pvt) Ltd., OU=Security, CN=client/emailAddress=identity-dev@wso2.org
        Subject Public Key Info:
            Public Key Algorithm: rsaEncryption
            RSA Public Key: (1024 bit)
                Modulus (1024 bit):
                    00:af:f9:48:d1:be:25:e3:e5:fb:3a:9f:bd:4a:b1:
                    78:65:c0:e7:31:34:50:9c:09:30:52:7e:55:71:dd:
                    10:9a:08:be:45:0f:11:6f:96:3f:31:3f:3b:f4:1d:
                    66:49:54:07:77:60:18:b0:3f:c4:10:fd:e5:c1:3c:
                    cf:9b:0e:c9:27:a8:10:d5:c7:8d:76:12:30:9b:05:
                    ff:56:57:81:8c:20:77:09:91:a9:62:83:0d:ec:e5:
                    dc:3d:6c:f9:ff:59:b6:9b:b6:51:56:78:09:cf:4f:
                    7e:c0:84:3a:cd:4b:d0:34:c1:67:70:ed:d1:cf:6f:
                    8e:4c:ac:64:ca:0b:92:c6:93
                Exponent: 65537 (0x10001)
        X509v3 extensions:
            X509v3 Basic Constraints: 
                CA:FALSE
            Netscape Comment: 
                OpenSSL Generated Certificate
            X509v3 Subject Key Identifier: 
                2E:68:2A:A0:2E:AD:A0:87:4B:04:C4:EB:12:35:C9:7E:26:06:E7:2C
            X509v3 Authority Key Identifier: 
                keyid:D8:D0:1F:05:85:16:3B:CE:3B:04:45:99:18:3C:30:06:DB:26:07:6B

            Netscape CA Revocation Url: 
                http://ca.is.wso2.org/ca-crl.pem
    Signature Algorithm: sha1WithRSAEncryption
        80:da:d3:28:70:a9:bc:e6:c9:c3:7a:62:3f:7d:3a:75:cb:62:
        ed:fb:54:9f:9e:16:7e:a4:97:62:2b:36:58:c9:e3:9f:ee:bf:
        fd:df:e0:47:88:27:a7:ca:ee:47:20:40:2c:e3:16:2b:d3:74:
        67:92:b1:3b:c9:8d:74:08:12:9a:72:52:78:98:15:86:03:59:
        01:9b:50:28:5d:f5:45:e6:35:23:fe:56:f0:d6:1a:cb:3c:2d:
        5b:cc:1d:1c:6f:bb:35:d3:0e:f6:62:c3:8a:db:b0:bd:b2:f5:
        29:82:04:6c:c1:56:97:5b:4d:fc:13:0b:e1:1d:d6:5c:f1:cc:
        98:6f
-----BEGIN CERTIFICATE-----
MIIDZTCCAs6gAwIBAgIJAIhSvW2QQbDBMA0GCSqGSIb3DQEBBQUAMIGcMQswCQYD
VQQGEwJMSzEQMA4GA1UECBMHV2VzdGVybjEeMBwGA1UEChMVV1NPMiBMYW5rYSAo
UHZ0KSBMdGQuMREwDwYDVQQLEwhTZWN1cml0eTEiMCAGA1UEAxMZV1NPMiBJZGVu
dGl0eSBTb2x1dGlvbiBDQTEkMCIGCSqGSIb3DQEJARYVaWRlbnRpdHktZGV2QHdz
bzIub3JnMB4XDTA3MDkyMTEyMjE0MFoXDTI0MDIyNDEyMjE0MFowgZsxCzAJBgNV
BAYTAkxLMRAwDgYDVQQIEwdXZXN0ZXJuMRAwDgYDVQQHEwdDb2xvbWJvMR4wHAYD
VQQKExVXU08yIExhbmthIChQdnQpIEx0ZC4xETAPBgNVBAsTCFNlY3VyaXR5MQ8w
DQYDVQQDEwZjbGllbnQxJDAiBgkqhkiG9w0BCQEWFWlkZW50aXR5LWRldkB3c28y
Lm9yZzCBnzANBgkqhkiG9w0BAQEFAAOBjQAwgYkCgYEAr/lI0b4l4+X7Op+9SrF4
ZcDnMTRQnAkwUn5Vcd0Qmgi+RQ8Rb5Y/MT879B1mSVQHd2AYsD/EEP3lwTzPmw7J
J6gQ1ceNdhIwmwX/VleBjCB3CZGpYoMN7OXcPWz5/1m2m7ZRVngJz09+wIQ6zUvQ
NMFncO3Rz2+OTKxkyguSxpMCAwEAAaOBrTCBqjAJBgNVHRMEAjAAMCwGCWCGSAGG
+EIBDQQfFh1PcGVuU1NMIEdlbmVyYXRlZCBDZXJ0aWZpY2F0ZTAdBgNVHQ4EFgQU
LmgqoC6toIdLBMTrEjXJfiYG5ywwHwYDVR0jBBgwFoAU2NAfBYUWO847BEWZGDww
BtsmB2swLwYJYIZIAYb4QgEEBCIWIGh0dHA6Ly9jYS5pcy53c28yLm9yZy9jYS1j
cmwucGVtMA0GCSqGSIb3DQEBBQUAA4GBAIDa0yhwqbzmycN6Yj99OnXLYu37VJ+e
Fn6kl2IrNljJ45/uv/3f4EeIJ6fK7kcgQCzjFivTdGeSsTvJjXQIEppyUniYFYYD
WQGbUChd9UXmNSP+VvDWGss8LVvMHRxvuzXTDvZiw4rbsL2y9SmCBGzBVpdbTfwT
C+Ed1lzxzJhv
-----END CERTIFICATE-----
