Certificate:
    Data:
        Version: 3 (0x2)
        Serial Number:
            88:52:bd:6d:90:41:b0:c0
        Signature Algorithm: sha1WithRSAEncryption
        Issuer: C=LK, ST=Western, O=WSO2 Lanka (Pvt) Ltd., OU=Security, CN=WSO2 Identity Solution CA/emailAddress=identity-dev@wso2.org
        Validity
            Not Before: Sep 21 12:18:55 2007 GMT
            Not After : Feb 24 12:18:55 2024 GMT
        Subject: C=LK, ST=Western, L=Colombo, O=WSO2 Lanka (Pvt) Ltd., OU=Security, CN=localhost/emailAddress=identity-dev@wso2.org
        Subject Public Key Info:
            Public Key Algorithm: rsaEncryption
            RSA Public Key: (1024 bit)
                Modulus (1024 bit):
                    00:af:e8:7b:b4:aa:00:05:07:90:7d:65:e9:b1:85:
                    3c:5c:06:fc:8a:2b:a2:41:d2:a8:05:8a:79:0e:82:
                    4d:48:0b:ad:d9:07:6f:ff:e5:72:c3:6f:65:80:68:
                    50:33:aa:69:4f:c0:0d:97:28:b3:c3:66:3d:fb:ad:
                    d7:8a:3c:eb:31:d4:a0:8a:f8:c2:4b:4f:3e:fd:12:
                    f3:50:29:06:62:49:b5:aa:25:31:27:9e:13:de:41:
                    1a:70:6f:d3:36:db:e6:2b:ce:76:be:5a:63:f4:e7:
                    7c:bf:f1:c3:3b:85:a4:d6:3f:19:b4:30:99:49:4b:
                    9e:bb:dc:2d:f8:d6:fc:7d:7f
                Exponent: 65537 (0x10001)
        X509v3 extensions:
            X509v3 Basic Constraints: 
                CA:FALSE
            Netscape Comment: 
                OpenSSL Generated Certificate
            X509v3 Subject Key Identifier: 
                42:A7:46:D4:47:63:E9:6B:4D:45:04:DF:21:0A:2F:81:AA:A0:61:82
            X509v3 Authority Key Identifier: 
                keyid:D8:D0:1F:05:85:16:3B:CE:3B:04:45:99:18:3C:30:06:DB:26:07:6B

            Netscape CA Revocation Url: 
                http://ca.is.wso2.org/ca-crl.pem
    Signature Algorithm: sha1WithRSAEncryption
        47:c3:8d:af:21:3a:1b:1c:36:27:32:71:1f:1c:29:9e:69:db:
        ef:8b:37:d8:84:8f:6c:ad:b2:62:e7:a5:3b:ef:0e:c9:35:84:
        81:fc:9e:6b:02:b5:9f:5f:67:ee:55:fb:1e:be:15:7b:76:6b:
        f9:4f:b7:21:23:10:f0:e7:55:49:4d:46:ba:60:c1:74:9b:25:
        63:b8:bc:24:00:6e:77:64:29:c3:36:93:e0:27:9f:e3:66:70:
        89:40:f1:0d:2d:66:73:4d:a7:5b:5e:80:d7:3c:f7:66:29:e1:
        3e:c0:63:3d:5d:b7:d9:18:26:d7:36:2a:25:d8:5d:b2:ba:de:
        92:03
-----BEGIN CERTIFICATE-----
MIIDaDCCAtGgAwIBAgIJAIhSvW2QQbDAMA0GCSqGSIb3DQEBBQUAMIGcMQswCQYD
VQQGEwJMSzEQMA4GA1UECBMHV2VzdGVybjEeMBwGA1UEChMVV1NPMiBMYW5rYSAo
UHZ0KSBMdGQuMREwDwYDVQQLEwhTZWN1cml0eTEiMCAGA1UEAxMZV1NPMiBJZGVu
dGl0eSBTb2x1dGlvbiBDQTEkMCIGCSqGSIb3DQEJARYVaWRlbnRpdHktZGV2QHdz
bzIub3JnMB4XDTA3MDkyMTEyMTg1NVoXDTI0MDIyNDEyMTg1NVowgZ4xCzAJBgNV
BAYTAkxLMRAwDgYDVQQIEwdXZXN0ZXJuMRAwDgYDVQQHEwdDb2xvbWJvMR4wHAYD
VQQKExVXU08yIExhbmthIChQdnQpIEx0ZC4xETAPBgNVBAsTCFNlY3VyaXR5MRIw
EAYDVQQDEwlsb2NhbGhvc3QxJDAiBgkqhkiG9w0BCQEWFWlkZW50aXR5LWRldkB3
c28yLm9yZzCBnzANBgkqhkiG9w0BAQEFAAOBjQAwgYkCgYEAr+h7tKoABQeQfWXp
sYU8XAb8iiuiQdKoBYp5DoJNSAut2Qdv/+Vyw29lgGhQM6ppT8ANlyizw2Y9+63X
ijzrMdSgivjCS08+/RLzUCkGYkm1qiUxJ54T3kEacG/TNtvmK852vlpj9Od8v/HD
O4Wk1j8ZtDCZSUueu9wt+Nb8fX8CAwEAAaOBrTCBqjAJBgNVHRMEAjAAMCwGCWCG
SAGG+EIBDQQfFh1PcGVuU1NMIEdlbmVyYXRlZCBDZXJ0aWZpY2F0ZTAdBgNVHQ4E
FgQUQqdG1Edj6WtNRQTfIQovgaqgYYIwHwYDVR0jBBgwFoAU2NAfBYUWO847BEWZ
GDwwBtsmB2swLwYJYIZIAYb4QgEEBCIWIGh0dHA6Ly9jYS5pcy53c28yLm9yZy9j
YS1jcmwucGVtMA0GCSqGSIb3DQEBBQUAA4GBAEfDja8hOhscNicycR8cKZ5p2++L
N9iEj2ytsmLnpTvvDsk1hIH8nmsCtZ9fZ+5V+x6+FXt2a/lPtyEjEPDnVUlNRrpg
wXSbJWO4vCQAbndkKcM2k+Ann+NmcIlA8Q0tZnNNp1tegNc892Yp4T7AYz1dt9kY
Jtc2KiXYXbK63pID
-----END CERTIFICATE-----
