Certificate:
    Data:
        Version: 3 (0x2)
        Serial Number:
            88:52:bd:6d:90:41:b0:c3
        Signature Algorithm: sha1WithRSAEncryption
        Issuer: C=LK, ST=Western, O=WSO2 Lanka (Pvt) Ltd., OU=Security, CN=WSO2 Identity Solution CA/emailAddress=identity-dev@wso2.org
        Validity
            Not Before: Sep 28 12:59:36 2007 GMT
            Not After : Mar  2 12:59:36 2024 GMT
        Subject: C=LK, ST=Western, L=Colombo, O=WSO2, OU=Identity Solution, CN=identity.lk.wso2.com
        Subject Public Key Info:
            Public Key Algorithm: rsaEncryption
            RSA Public Key: (1024 bit)
                Modulus (1024 bit):
                    00:c1:48:21:fa:37:a0:69:50:28:08:16:d8:83:d8:
                    2c:53:3c:65:a6:80:fb:51:e5:f7:47:7f:6b:32:9a:
                    90:a4:0b:13:b4:20:bb:26:4b:35:08:2a:45:d6:31:
                    6d:b7:23:dc:5d:a8:11:a0:e2:fa:c5:70:1b:a6:32:
                    b2:cb:35:34:f0:3a:02:f0:6b:27:ce:59:a3:f2:7c:
                    8f:c3:59:fc:86:be:5e:d6:0f:b9:64:cc:5f:ed:2f:
                    8f:e4:ea:7b:43:30:12:a1:05:10:84:cc:84:3a:53:
                    36:e0:ab:68:99:b4:ec:83:ed:18:65:5e:20:ed:89:
                    dd:6a:e0:dc:90:d4:88:1a:55
                Exponent: 65537 (0x10001)
        X509v3 extensions:
            X509v3 Basic Constraints: 
                CA:FALSE
            Netscape Comment: 
                OpenSSL Generated Certificate
            X509v3 Subject Key Identifier: 
                3A:AF:F9:0D:78:A8:CD:82:5E:BB:06:D3:F1:51:47:DE:B1:E3:A1:56
            X509v3 Authority Key Identifier: 
                keyid:D8:D0:1F:05:85:16:3B:CE:3B:04:45:99:18:3C:30:06:DB:26:07:6B

            Netscape CA Revocation Url: 
                http://ca.is.wso2.org/ca-crl.pem
    Signature Algorithm: sha1WithRSAEncryption
        03:43:5e:19:27:62:d7:2b:5d:17:96:4a:4b:e4:50:98:14:bd:
        f1:16:94:19:c1:f7:74:94:0b:c1:b9:25:88:e8:8c:30:a3:19:
        87:9b:de:44:95:24:6b:54:a8:ed:d4:e0:cd:e2:5c:d1:49:1d:
        da:15:0f:bc:ad:ac:d4:a8:47:d2:a5:6d:2b:24:e4:e5:de:2b:
        fc:d2:21:9f:43:8f:5f:0d:31:e0:17:93:a9:c8:bb:c6:63:e2:
        c6:cd:e8:c2:03:84:70:42:a5:1f:53:de:55:1e:e0:99:a4:80:
        da:7b:f2:5f:de:89:b1:fd:6e:d1:2a:fd:ef:a6:a7:95:17:55:
        c4:3f
-----BEGIN CERTIFICATE-----
MIIDRDCCAq2gAwIBAgIJAIhSvW2QQbDDMA0GCSqGSIb3DQEBBQUAMIGcMQswCQYD
VQQGEwJMSzEQMA4GA1UECBMHV2VzdGVybjEeMBwGA1UEChMVV1NPMiBMYW5rYSAo
UHZ0KSBMdGQuMREwDwYDVQQLEwhTZWN1cml0eTEiMCAGA1UEAxMZV1NPMiBJZGVu
dGl0eSBTb2x1dGlvbiBDQTEkMCIGCSqGSIb3DQEJARYVaWRlbnRpdHktZGV2QHdz
bzIub3JnMB4XDTA3MDkyODEyNTkzNloXDTI0MDMwMjEyNTkzNlowezELMAkGA1UE
BhMCTEsxEDAOBgNVBAgTB1dlc3Rlcm4xEDAOBgNVBAcTB0NvbG9tYm8xDTALBgNV
BAoTBFdTTzIxGjAYBgNVBAsTEUlkZW50aXR5IFNvbHV0aW9uMR0wGwYDVQQDExRp
ZGVudGl0eS5say53c28yLmNvbTCBnzANBgkqhkiG9w0BAQEFAAOBjQAwgYkCgYEA
wUgh+jegaVAoCBbYg9gsUzxlpoD7UeX3R39rMpqQpAsTtCC7Jks1CCpF1jFttyPc
XagRoOL6xXAbpjKyyzU08DoC8Gsnzlmj8nyPw1n8hr5e1g+5ZMxf7S+P5Op7QzAS
oQUQhMyEOlM24KtombTsg+0YZV4g7YndauDckNSIGlUCAwEAAaOBrTCBqjAJBgNV
HRMEAjAAMCwGCWCGSAGG+EIBDQQfFh1PcGVuU1NMIEdlbmVyYXRlZCBDZXJ0aWZp
Y2F0ZTAdBgNVHQ4EFgQUOq/5DXiozYJeuwbT8VFH3rHjoVYwHwYDVR0jBBgwFoAU
2NAfBYUWO847BEWZGDwwBtsmB2swLwYJYIZIAYb4QgEEBCIWIGh0dHA6Ly9jYS5p
cy53c28yLm9yZy9jYS1jcmwucGVtMA0GCSqGSIb3DQEBBQUAA4GBAANDXhknYtcr
XReWSkvkUJgUvfEWlBnB93SUC8G5JYjojDCjGYeb3kSVJGtUqO3U4M3iXNFJHdoV
D7ytrNSoR9KlbSsk5OXeK/zSIZ9Dj18NMeAXk6nIu8Zj4sbN6MIDhHBCpR9T3lUe
4JmkgNp78l/eibH9btEq/e+mp5UXVcQ/
-----END CERTIFICATE-----
