Certificate:
    Data:
        Version: 3 (0x2)
        Serial Number:
            88:52:bd:6d:90:41:b0:c2
        Signature Algorithm: sha1WithRSAEncryption
        Issuer: C=LK, ST=Western, O=WSO2 Lanka (Pvt) Ltd., OU=Security, CN=WSO2 Identity Solution CA/emailAddress=identity-dev@wso2.org
        Validity
            Not Before: Sep 28 12:52:33 2007 GMT
            Not After : Mar  2 12:52:33 2024 GMT
        Subject: C=LK, ST=Western, L=Colombo, O=WSO2, OU=Identity Solution, CN=localhost
        Subject Public Key Info:
            Public Key Algorithm: rsaEncryption
            RSA Public Key: (1024 bit)
                Modulus (1024 bit):
                    00:d6:7f:03:30:3b:34:a8:4a:18:98:ef:07:f5:4c:
                    4a:0e:78:6a:d4:ab:ab:1f:df:ef:28:e2:97:65:7b:
                    fd:02:af:40:a4:d2:19:00:8a:b3:d3:1c:30:dd:c7:
                    1c:68:92:cb:a7:04:75:cc:06:d5:0a:c5:24:ab:4c:
                    1e:e7:a9:b2:4d:ee:da:54:46:ac:3a:12:be:0e:ca:
                    21:ea:86:39:de:a8:fc:4c:42:6c:a0:6a:da:fa:6d:
                    51:9b:49:bb:05:46:3c:72:1f:9f:67:42:eb:d7:42:
                    9f:5b:62:d6:24:64:af:6f:9b:ae:36:ba:0a:1e:54:
                    1d:79:76:13:04:f0:39:83:ab
                Exponent: 65537 (0x10001)
        X509v3 extensions:
            X509v3 Basic Constraints: 
                CA:FALSE
            Netscape Comment: 
                OpenSSL Generated Certificate
            X509v3 Subject Key Identifier: 
                4B:52:4A:56:A2:B1:61:1E:79:D5:8F:F0:BC:7C:11:D2:ED:15:5C:0D
            X509v3 Authority Key Identifier: 
                keyid:D8:D0:1F:05:85:16:3B:CE:3B:04:45:99:18:3C:30:06:DB:26:07:6B

            Netscape CA Revocation Url: 
                http://ca.is.wso2.org/ca-crl.pem
    Signature Algorithm: sha1WithRSAEncryption
        18:db:03:67:d6:40:ff:25:73:e2:18:82:d1:59:bd:1b:67:8e:
        75:76:28:c3:69:25:7c:43:29:0a:17:b0:2f:f5:f7:1f:a3:72:
        54:d1:5c:a3:69:9f:f2:f2:4b:5c:d4:77:7e:1f:a8:d6:88:98:
        0f:ac:d5:b7:f6:65:ae:3c:6a:b8:db:d7:cc:1c:9e:df:71:eb:
        b4:b1:a1:4d:61:09:9f:da:f3:e8:38:dc:9e:5e:9d:c7:55:4c:
        c6:15:ab:d3:b6:1d:b5:e8:8a:bf:03:83:a6:45:8d:d4:ba:52:
        49:cc:13:a2:be:ca:f7:10:ca:b7:34:d6:ed:00:60:7f:37:49:
        99:a9
-----BEGIN CERTIFICATE-----
MIIDOTCCAqKgAwIBAgIJAIhSvW2QQbDCMA0GCSqGSIb3DQEBBQUAMIGcMQswCQYD
VQQGEwJMSzEQMA4GA1UECBMHV2VzdGVybjEeMBwGA1UEChMVV1NPMiBMYW5rYSAo
UHZ0KSBMdGQuMREwDwYDVQQLEwhTZWN1cml0eTEiMCAGA1UEAxMZV1NPMiBJZGVu
dGl0eSBTb2x1dGlvbiBDQTEkMCIGCSqGSIb3DQEJARYVaWRlbnRpdHktZGV2QHdz
bzIub3JnMB4XDTA3MDkyODEyNTIzM1oXDTI0MDMwMjEyNTIzM1owcDELMAkGA1UE
BhMCTEsxEDAOBgNVBAgTB1dlc3Rlcm4xEDAOBgNVBAcTB0NvbG9tYm8xDTALBgNV
BAoTBFdTTzIxGjAYBgNVBAsTEUlkZW50aXR5IFNvbHV0aW9uMRIwEAYDVQQDEwls
b2NhbGhvc3QwgZ8wDQYJKoZIhvcNAQEBBQADgY0AMIGJAoGBANZ/AzA7NKhKGJjv
B/VMSg54atSrqx/f7yjil2V7/QKvQKTSGQCKs9McMN3HHGiSy6cEdcwG1QrFJKtM
Huepsk3u2lRGrDoSvg7KIeqGOd6o/ExCbKBq2vptUZtJuwVGPHIfn2dC69dCn1ti
1iRkr2+brja6Ch5UHXl2EwTwOYOrAgMBAAGjga0wgaowCQYDVR0TBAIwADAsBglg
hkgBhvhCAQ0EHxYdT3BlblNTTCBHZW5lcmF0ZWQgQ2VydGlmaWNhdGUwHQYDVR0O
BBYEFEtSSlaisWEeedWP8Lx8EdLtFVwNMB8GA1UdIwQYMBaAFNjQHwWFFjvOOwRF
mRg8MAbbJgdrMC8GCWCGSAGG+EIBBAQiFiBodHRwOi8vY2EuaXMud3NvMi5vcmcv
Y2EtY3JsLnBlbTANBgkqhkiG9w0BAQUFAAOBgQAY2wNn1kD/JXPiGILRWb0bZ451
dijDaSV8QykKF7Av9fcfo3JU0VyjaZ/y8ktc1Hd+H6jWiJgPrNW39mWuPGq429fM
HJ7fceu0saFNYQmf2vPoONyeXp3HVUzGFavTth216Iq/A4OmRY3UulJJzBOivsr3
EMq3NNbtAGB/N0mZqQ==
-----END CERTIFICATE-----
