Certificate:
    Data:
        Version: 3 (0x2)
        Serial Number:
            88:52:bd:6d:90:41:b0:c4
        Signature Algorithm: sha1WithRSAEncryption
        Issuer: C=LK, ST=Western, O=WSO2 Lanka (Pvt) Ltd., OU=Security, CN=WSO2 Identity Solution CA/emailAddress=identity-dev@wso2.org
        Validity
            Not Before: Sep 30 10:38:20 2007 GMT
            Not After : Mar  4 10:38:20 2024 GMT
        Subject: C=LK, ST=Western, L=Colombo, O=WSO2, OU=Identity Solution, CN=samplerp
        Subject Public Key Info:
            Public Key Algorithm: rsaEncryption
            RSA Public Key: (1024 bit)
                Modulus (1024 bit):
                    00:ce:f8:b9:4a:ba:c9:96:4a:55:fc:8b:1c:9c:9d:
                    c3:d0:bd:b3:22:bb:7d:05:42:35:14:bf:a0:85:35:
                    ae:d6:90:68:e9:7a:15:a6:b6:07:14:bc:2e:0a:90:
                    9e:36:35:ef:f2:40:12:10:a8:20:20:5e:9c:69:9d:
                    45:4d:7a:92:96:1f:42:cb:af:ab:b8:4a:f2:c5:1b:
                    3d:dc:3c:3f:85:db:ec:76:a4:9b:f8:a9:b9:e4:8b:
                    81:24:82:48:94:cd:e7:e6:aa:82:0c:c1:fd:74:36:
                    04:fe:1c:55:66:e9:77:50:87:cc:70:c7:86:b9:4b:
                    68:e9:e7:1f:4d:30:7b:3d:9d
                Exponent: 65537 (0x10001)
        X509v3 extensions:
            X509v3 Basic Constraints: 
                CA:FALSE
            Netscape Comment: 
                OpenSSL Generated Certificate
            X509v3 Subject Key Identifier: 
                ED:E4:D6:C5:F6:9D:31:22:4F:CD:36:95:9D:3C:75:36:6E:3F:99:BD
            X509v3 Authority Key Identifier: 
                keyid:D8:D0:1F:05:85:16:3B:CE:3B:04:45:99:18:3C:30:06:DB:26:07:6B

            Netscape CA Revocation Url: 
                http://ca.is.wso2.org/ca-crl.pem
    Signature Algorithm: sha1WithRSAEncryption
        a6:c2:ad:6b:cf:02:d8:2d:69:64:9a:9d:50:04:70:d5:e3:bf:
        66:8d:56:c4:a2:2b:87:c2:c4:90:a8:1c:b8:05:3e:13:46:32:
        7e:3f:4c:25:24:6c:76:a3:c3:2c:3a:e9:d7:80:fc:b1:d0:e7:
        52:d2:91:7d:7b:e1:17:05:af:75:8b:6d:35:45:32:1f:34:7d:
        9a:df:49:66:a9:b7:09:69:44:f7:a5:20:6b:80:a7:cf:20:0e:
        eb:16:39:01:f3:b5:b0:86:a2:9e:0b:84:7e:86:5f:43:67:ee:
        ac:b0:2c:e3:02:a2:d1:da:d3:dd:44:6a:a8:02:52:0c:3d:f0:
        51:91
-----BEGIN CERTIFICATE-----
MIIDODCCAqGgAwIBAgIJAIhSvW2QQbDEMA0GCSqGSIb3DQEBBQUAMIGcMQswCQYD
VQQGEwJMSzEQMA4GA1UECBMHV2VzdGVybjEeMBwGA1UEChMVV1NPMiBMYW5rYSAo
UHZ0KSBMdGQuMREwDwYDVQQLEwhTZWN1cml0eTEiMCAGA1UEAxMZV1NPMiBJZGVu
dGl0eSBTb2x1dGlvbiBDQTEkMCIGCSqGSIb3DQEJARYVaWRlbnRpdHktZGV2QHdz
bzIub3JnMB4XDTA3MDkzMDEwMzgyMFoXDTI0MDMwNDEwMzgyMFowbzELMAkGA1UE
BhMCTEsxEDAOBgNVBAgTB1dlc3Rlcm4xEDAOBgNVBAcTB0NvbG9tYm8xDTALBgNV
BAoTBFdTTzIxGjAYBgNVBAsTEUlkZW50aXR5IFNvbHV0aW9uMREwDwYDVQQDEwhz
YW1wbGVycDCBnzANBgkqhkiG9w0BAQEFAAOBjQAwgYkCgYEAzvi5SrrJlkpV/Isc
nJ3D0L2zIrt9BUI1FL+ghTWu1pBo6XoVprYHFLwuCpCeNjXv8kASEKggIF6caZ1F
TXqSlh9Cy6+ruEryxRs93Dw/hdvsdqSb+Km55IuBJIJIlM3n5qqCDMH9dDYE/hxV
Zul3UIfMcMeGuUto6ecfTTB7PZ0CAwEAAaOBrTCBqjAJBgNVHRMEAjAAMCwGCWCG
SAGG+EIBDQQfFh1PcGVuU1NMIEdlbmVyYXRlZCBDZXJ0aWZpY2F0ZTAdBgNVHQ4E
FgQU7eTWxfadMSJPzTaVnTx1Nm4/mb0wHwYDVR0jBBgwFoAU2NAfBYUWO847BEWZ
GDwwBtsmB2swLwYJYIZIAYb4QgEEBCIWIGh0dHA6Ly9jYS5pcy53c28yLm9yZy9j
YS1jcmwucGVtMA0GCSqGSIb3DQEBBQUAA4GBAKbCrWvPAtgtaWSanVAEcNXjv2aN
VsSiK4fCxJCoHLgFPhNGMn4/TCUkbHajwyw66deA/LHQ51LSkX174RcFr3WLbTVF
Mh80fZrfSWaptwlpRPelIGuAp88gDusWOQHztbCGop4LhH6GX0Nn7qywLOMCotHa
091EaqgCUgw98FGR
-----END CERTIFICATE-----
