Certificate:
    Data:
        Version: 3 (0x2)
        Serial Number:
            88:52:bd:6d:90:41:b0:bf
        Signature Algorithm: sha1WithRSAEncryption
        Issuer: C=LK, ST=Western, O=WSO2 Lanka (Pvt) Ltd., OU=Security, CN=WSO2 Identity Solution CA/emailAddress=identity-dev@wso2.org
        Validity
            Not Before: Sep 21 11:36:45 2007 GMT
            Not After : Nov 20 11:36:45 2026 GMT
        Subject: C=LK, ST=Western, O=WSO2 Lanka (Pvt) Ltd., OU=Security, CN=WSO2 Identity Solution CA/emailAddress=identity-dev@wso2.org
        Subject Public Key Info:
            Public Key Algorithm: rsaEncryption
            RSA Public Key: (1024 bit)
                Modulus (1024 bit):
                    00:b3:29:01:4c:10:aa:b8:94:ac:b7:22:d4:4f:50:
                    6a:74:3d:83:97:c9:d8:a6:5b:68:64:c5:34:64:24:
                    fa:2e:ea:41:af:9a:09:47:9c:ad:41:eb:ed:6e:9a:
                    83:03:ae:d9:a6:e8:30:c6:f7:9f:79:41:36:7c:7b:
                    6e:81:84:09:f6:5b:ff:11:b0:da:22:7e:f6:64:88:
                    4d:0b:88:46:70:e8:f4:b5:d1:ce:1f:17:1d:61:30:
                    43:16:04:5a:2b:e0:a1:87:4e:77:12:d7:76:25:40:
                    0f:89:a2:09:a8:df:50:ca:f6:bb:f9:a0:f2:a7:9c:
                    67:91:c2:4e:22:9e:79:c3:69
                Exponent: 65537 (0x10001)
        X509v3 extensions:
            X509v3 Subject Key Identifier: 
                D8:D0:1F:05:85:16:3B:CE:3B:04:45:99:18:3C:30:06:DB:26:07:6B
            X509v3 Authority Key Identifier: 
                keyid:D8:D0:1F:05:85:16:3B:CE:3B:04:45:99:18:3C:30:06:DB:26:07:6B
                DirName:/C=LK/ST=Western/O=WSO2 Lanka (Pvt) Ltd./OU=Security/CN=WSO2 Identity Solution CA/emailAddress=identity-dev@wso2.org
                serial:88:52:BD:6D:90:41:B0:BF

            X509v3 Basic Constraints: 
                CA:TRUE
    Signature Algorithm: sha1WithRSAEncryption
        ad:ee:3c:37:05:c0:96:60:90:02:f0:38:34:8d:3c:e3:0e:52:
        3b:32:ff:63:64:98:23:5f:9c:e0:92:79:13:5a:0f:96:c1:e4:
        b1:af:f9:75:17:2b:ca:fd:5c:df:d8:28:01:33:e3:0e:76:b4:
        e6:0c:bb:34:05:55:26:65:63:37:4a:e5:a3:26:6f:4e:b1:3a:
        8c:4d:b3:50:ba:71:fd:2a:b7:e6:50:98:70:92:9d:80:2c:35:
        e2:a4:e4:68:1b:91:71:3c:55:8e:78:f2:17:ff:96:3f:cb:65:
        3d:c4:f0:36:9f:d4:ef:bb:34:58:39:75:95:4f:19:53:fe:44:
        0c:68
-----BEGIN CERTIFICATE-----
MIIDvzCCAyigAwIBAgIJAIhSvW2QQbC/MA0GCSqGSIb3DQEBBQUAMIGcMQswCQYD
VQQGEwJMSzEQMA4GA1UECBMHV2VzdGVybjEeMBwGA1UEChMVV1NPMiBMYW5rYSAo
UHZ0KSBMdGQuMREwDwYDVQQLEwhTZWN1cml0eTEiMCAGA1UEAxMZV1NPMiBJZGVu
dGl0eSBTb2x1dGlvbiBDQTEkMCIGCSqGSIb3DQEJARYVaWRlbnRpdHktZGV2QHdz
bzIub3JnMB4XDTA3MDkyMTExMzY0NVoXDTI2MTEyMDExMzY0NVowgZwxCzAJBgNV
BAYTAkxLMRAwDgYDVQQIEwdXZXN0ZXJuMR4wHAYDVQQKExVXU08yIExhbmthIChQ
dnQpIEx0ZC4xETAPBgNVBAsTCFNlY3VyaXR5MSIwIAYDVQQDExlXU08yIElkZW50
aXR5IFNvbHV0aW9uIENBMSQwIgYJKoZIhvcNAQkBFhVpZGVudGl0eS1kZXZAd3Nv
Mi5vcmcwgZ8wDQYJKoZIhvcNAQEBBQADgY0AMIGJAoGBALMpAUwQqriUrLci1E9Q
anQ9g5fJ2KZbaGTFNGQk+i7qQa+aCUecrUHr7W6agwOu2aboMMb3n3lBNnx7boGE
CfZb/xGw2iJ+9mSITQuIRnDo9LXRzh8XHWEwQxYEWivgoYdOdxLXdiVAD4miCajf
UMr2u/mg8qecZ5HCTiKeecNpAgMBAAGjggEFMIIBATAdBgNVHQ4EFgQU2NAfBYUW
O847BEWZGDwwBtsmB2swgdEGA1UdIwSByTCBxoAU2NAfBYUWO847BEWZGDwwBtsm
B2uhgaKkgZ8wgZwxCzAJBgNVBAYTAkxLMRAwDgYDVQQIEwdXZXN0ZXJuMR4wHAYD
VQQKExVXU08yIExhbmthIChQdnQpIEx0ZC4xETAPBgNVBAsTCFNlY3VyaXR5MSIw
IAYDVQQDExlXU08yIElkZW50aXR5IFNvbHV0aW9uIENBMSQwIgYJKoZIhvcNAQkB
FhVpZGVudGl0eS1kZXZAd3NvMi5vcmeCCQCIUr1tkEGwvzAMBgNVHRMEBTADAQH/
MA0GCSqGSIb3DQEBBQUAA4GBAK3uPDcFwJZgkALwODSNPOMOUjsy/2NkmCNfnOCS
eRNaD5bB5LGv+XUXK8r9XN/YKAEz4w52tOYMuzQFVSZlYzdK5aMmb06xOoxNs1C6
cf0qt+ZQmHCSnYAsNeKk5GgbkXE8VY548hf/lj/LZT3E8Daf1O+7NFg5dZVPGVP+
RAxo
-----END CERTIFICATE-----
